
LB1.3.elf:     file format elf32-avr

Sections:
Idx Name          Size      VMA       LMA       File off  Algn
  0 .text         0000018e  00000000  00000000  00000094  2**1
                  CONTENTS, ALLOC, LOAD, READONLY, CODE
  1 .data         0000000a  00800060  0000018e  00000222  2**0
                  CONTENTS, ALLOC, LOAD, DATA
  2 .bss          0000000b  0080006a  0080006a  0000022c  2**0
                  ALLOC

Disassembly of section .text:

00000000 <__vectors>:
   0:	0c 94 2a 00 	jmp	0x54	; 0x54 <__ctors_end>
   4:	0c 94 47 00 	jmp	0x8e	; 0x8e <__bad_interrupt>
   8:	0c 94 47 00 	jmp	0x8e	; 0x8e <__bad_interrupt>
   c:	0c 94 47 00 	jmp	0x8e	; 0x8e <__bad_interrupt>
  10:	0c 94 47 00 	jmp	0x8e	; 0x8e <__bad_interrupt>
  14:	0c 94 47 00 	jmp	0x8e	; 0x8e <__bad_interrupt>
  18:	0c 94 47 00 	jmp	0x8e	; 0x8e <__bad_interrupt>
  1c:	0c 94 a5 00 	jmp	0x14a	; 0x14a <__vector_7>
  20:	0c 94 47 00 	jmp	0x8e	; 0x8e <__bad_interrupt>
  24:	0c 94 47 00 	jmp	0x8e	; 0x8e <__bad_interrupt>
  28:	0c 94 47 00 	jmp	0x8e	; 0x8e <__bad_interrupt>
  2c:	0c 94 47 00 	jmp	0x8e	; 0x8e <__bad_interrupt>
  30:	0c 94 47 00 	jmp	0x8e	; 0x8e <__bad_interrupt>
  34:	0c 94 47 00 	jmp	0x8e	; 0x8e <__bad_interrupt>
  38:	0c 94 47 00 	jmp	0x8e	; 0x8e <__bad_interrupt>
  3c:	0c 94 47 00 	jmp	0x8e	; 0x8e <__bad_interrupt>
  40:	0c 94 47 00 	jmp	0x8e	; 0x8e <__bad_interrupt>
  44:	0c 94 47 00 	jmp	0x8e	; 0x8e <__bad_interrupt>
  48:	0c 94 47 00 	jmp	0x8e	; 0x8e <__bad_interrupt>
  4c:	0c 94 47 00 	jmp	0x8e	; 0x8e <__bad_interrupt>
  50:	0c 94 47 00 	jmp	0x8e	; 0x8e <__bad_interrupt>

00000054 <__ctors_end>:
  54:	11 24       	eor	r1, r1
  56:	1f be       	out	0x3f, r1	; 63
  58:	cf e5       	ldi	r28, 0x5F	; 95
  5a:	d8 e0       	ldi	r29, 0x08	; 8
  5c:	de bf       	out	0x3e, r29	; 62
  5e:	cd bf       	out	0x3d, r28	; 61

00000060 <__do_copy_data>:
  60:	10 e0       	ldi	r17, 0x00	; 0
  62:	a0 e6       	ldi	r26, 0x60	; 96
  64:	b0 e0       	ldi	r27, 0x00	; 0
  66:	ee e8       	ldi	r30, 0x8E	; 142
  68:	f1 e0       	ldi	r31, 0x01	; 1
  6a:	02 c0       	rjmp	.+4      	; 0x70 <.do_copy_data_start>

0000006c <.do_copy_data_loop>:
  6c:	05 90       	lpm	r0, Z+
  6e:	0d 92       	st	X+, r0

00000070 <.do_copy_data_start>:
  70:	aa 36       	cpi	r26, 0x6A	; 106
  72:	b1 07       	cpc	r27, r17
  74:	d9 f7       	brne	.-10     	; 0x6c <.do_copy_data_loop>

00000076 <__do_clear_bss>:
  76:	10 e0       	ldi	r17, 0x00	; 0
  78:	aa e6       	ldi	r26, 0x6A	; 106
  7a:	b0 e0       	ldi	r27, 0x00	; 0
  7c:	01 c0       	rjmp	.+2      	; 0x80 <.do_clear_bss_start>

0000007e <.do_clear_bss_loop>:
  7e:	1d 92       	st	X+, r1

00000080 <.do_clear_bss_start>:
  80:	a5 37       	cpi	r26, 0x75	; 117
  82:	b1 07       	cpc	r27, r17
  84:	e1 f7       	brne	.-8      	; 0x7e <.do_clear_bss_loop>
  86:	0e 94 62 00 	call	0xc4	; 0xc4 <main>
  8a:	0c 94 c5 00 	jmp	0x18a	; 0x18a <_exit>

0000008e <__bad_interrupt>:
  8e:	0c 94 00 00 	jmp	0	; 0x0 <__vectors>

00000092 <TimerInit>:
  92:	8e b5       	in	r24, 0x2e	; 46
  94:	88 60       	ori	r24, 0x08	; 8
  96:	8e bd       	out	0x2e, r24	; 46
  98:	8e b5       	in	r24, 0x2e	; 46
  9a:	84 60       	ori	r24, 0x04	; 4
  9c:	8e bd       	out	0x2e, r24	; 46
  9e:	82 e2       	ldi	r24, 0x22	; 34
  a0:	9d e3       	ldi	r25, 0x3D	; 61
  a2:	9b bd       	out	0x2b, r25	; 43
  a4:	8a bd       	out	0x2a, r24	; 42
  a6:	89 b7       	in	r24, 0x39	; 57
  a8:	80 61       	ori	r24, 0x10	; 16
  aa:	89 bf       	out	0x39, r24	; 57
  ac:	08 95       	ret

000000ae <seg7Init>:
  ae:	8f ef       	ldi	r24, 0xFF	; 255
  b0:	84 bb       	out	0x14, r24	; 20
  b2:	15 ba       	out	0x15, r1	; 21
  b4:	08 95       	ret

000000b6 <seg7ShowCyfra>:
  b6:	e0 e6       	ldi	r30, 0x60	; 96
  b8:	f0 e0       	ldi	r31, 0x00	; 0
  ba:	e8 0f       	add	r30, r24
  bc:	f1 1d       	adc	r31, r1
  be:	80 81       	ld	r24, Z
  c0:	85 bb       	out	0x15, r24	; 21
  c2:	08 95       	ret

000000c4 <main>:
  c4:	0e 94 49 00 	call	0x92	; 0x92 <TimerInit>
  c8:	8f ef       	ldi	r24, 0xFF	; 255
  ca:	84 bb       	out	0x14, r24	; 20
  cc:	15 ba       	out	0x15, r1	; 21
  ce:	78 94       	sei
  d0:	b8 9a       	sbi	0x17, 0	; 23
  d2:	c0 98       	cbi	0x18, 0	; 24
  d4:	90 9a       	sbi	0x12, 0	; 18
  d6:	8b e0       	ldi	r24, 0x0B	; 11
  d8:	80 93 72 00 	sts	0x0072, r24
  dc:	81 e0       	ldi	r24, 0x01	; 1
  de:	80 93 73 00 	sts	0x0073, r24
  e2:	28 ec       	ldi	r18, 0xC8	; 200
  e4:	30 e0       	ldi	r19, 0x00	; 0
  e6:	4b e0       	ldi	r20, 0x0B	; 11
  e8:	51 e0       	ldi	r21, 0x01	; 1
  ea:	80 91 72 00 	lds	r24, 0x0072
  ee:	88 23       	and	r24, r24
  f0:	59 f4       	brne	.+22     	; 0x108 <main+0x44>
  f2:	c0 9a       	sbi	0x18, 0	; 24
  f4:	80 e5       	ldi	r24, 0x50	; 80
  f6:	93 ec       	ldi	r25, 0xC3	; 195
  f8:	f9 01       	movw	r30, r18
  fa:	31 97       	sbiw	r30, 0x01	; 1
  fc:	f1 f7       	brne	.-4      	; 0xfa <main+0x36>
  fe:	01 97       	sbiw	r24, 0x01	; 1
 100:	d9 f7       	brne	.-10     	; 0xf8 <main+0x34>
 102:	c0 98       	cbi	0x18, 0	; 24
 104:	40 93 72 00 	sts	0x0072, r20
 108:	80 99       	sbic	0x10, 0	; 16
 10a:	0d c0       	rjmp	.+26     	; 0x126 <main+0x62>
 10c:	80 91 73 00 	lds	r24, 0x0073
 110:	88 23       	and	r24, r24
 112:	49 f0       	breq	.+18     	; 0x126 <main+0x62>
 114:	10 92 73 00 	sts	0x0073, r1
 118:	88 e8       	ldi	r24, 0x88	; 136
 11a:	93 e1       	ldi	r25, 0x13	; 19
 11c:	f9 01       	movw	r30, r18
 11e:	31 97       	sbiw	r30, 0x01	; 1
 120:	f1 f7       	brne	.-4      	; 0x11e <main+0x5a>
 122:	01 97       	sbiw	r24, 0x01	; 1
 124:	d9 f7       	brne	.-10     	; 0x11c <main+0x58>
 126:	80 99       	sbic	0x10, 0	; 16
 128:	e0 cf       	rjmp	.-64     	; 0xea <main+0x26>
 12a:	80 91 73 00 	lds	r24, 0x0073
 12e:	88 23       	and	r24, r24
 130:	e1 f6       	brne	.-72     	; 0xea <main+0x26>
 132:	40 93 72 00 	sts	0x0072, r20
 136:	50 93 73 00 	sts	0x0073, r21
 13a:	88 e8       	ldi	r24, 0x88	; 136
 13c:	93 e1       	ldi	r25, 0x13	; 19
 13e:	f9 01       	movw	r30, r18
 140:	31 97       	sbiw	r30, 0x01	; 1
 142:	f1 f7       	brne	.-4      	; 0x140 <main+0x7c>
 144:	01 97       	sbiw	r24, 0x01	; 1
 146:	d9 f7       	brne	.-10     	; 0x13e <main+0x7a>
 148:	d0 cf       	rjmp	.-96     	; 0xea <main+0x26>

0000014a <__vector_7>:
 14a:	1f 92       	push	r1
 14c:	0f 92       	push	r0
 14e:	0f b6       	in	r0, 0x3f	; 63
 150:	0f 92       	push	r0
 152:	11 24       	eor	r1, r1
 154:	8f 93       	push	r24
 156:	ef 93       	push	r30
 158:	ff 93       	push	r31
 15a:	80 91 73 00 	lds	r24, 0x0073
 15e:	88 23       	and	r24, r24
 160:	29 f0       	breq	.+10     	; 0x16c <__vector_7+0x22>
 162:	80 91 72 00 	lds	r24, 0x0072
 166:	81 50       	subi	r24, 0x01	; 1
 168:	80 93 72 00 	sts	0x0072, r24
 16c:	e0 91 72 00 	lds	r30, 0x0072
 170:	f0 e0       	ldi	r31, 0x00	; 0
 172:	e0 5a       	subi	r30, 0xA0	; 160
 174:	ff 4f       	sbci	r31, 0xFF	; 255
 176:	80 81       	ld	r24, Z
 178:	85 bb       	out	0x15, r24	; 21
 17a:	ff 91       	pop	r31
 17c:	ef 91       	pop	r30
 17e:	8f 91       	pop	r24
 180:	0f 90       	pop	r0
 182:	0f be       	out	0x3f, r0	; 63
 184:	0f 90       	pop	r0
 186:	1f 90       	pop	r1
 188:	18 95       	reti

0000018a <_exit>:
 18a:	f8 94       	cli

0000018c <__stop_program>:
 18c:	ff cf       	rjmp	.-2      	; 0x18c <__stop_program>
